target datalayout = "e-m:e-p270:32:32-p271:32:32-p272:64:64-i64:64-i128:128-f80:128-n8:16:32:64-S128"
target triple = "x86_64-pc-linux-gnu"

%struct.ZSTDv07_customMem = type { ptr, ptr, ptr }
%struct.ZSTDv07_DCtx_s = type { [513 x i32], [257 x i32], [513 x i32], [4097 x i32], ptr, ptr, ptr, ptr, i64, [3 x i32], %struct.ZSTDv07_frameParams, i32, i32, i32, i32, %struct.XXH64_state_s, i64, i32, ptr, %struct.ZSTDv07_customMem, i64, [131080 x i8], [18 x i8] }
%struct.ZSTDv07_frameParams = type { i64, i32, i32, i32 }
%struct.XXH64_state_s = type { i64, [4 x i64], [4 x i64], i32, i32, i64 }
%struct.ZBUFFv07_DCtx_s = type { ptr, %struct.ZSTDv07_frameParams, i32, ptr, i64, i64, ptr, i64, i64, i64, i64, [18 x i8], i64, %struct.ZSTDv07_customMem }

; Function Attrs: nounwind uwtable
define i64 @ZSTDv07_freeDCtx(ptr noundef %0) #0 {
  %2 = alloca i64, align 8
  %3 = alloca ptr, align 8
  store ptr %0, ptr %3, align 8, !tbaa !67
  %4 = load ptr, ptr %3, align 8, !tbaa !67
  %5 = icmp eq ptr %4, null
  br i1 %5, label %6, label %7

6:                                                ; preds = %1
  store i64 0, ptr %2, align 8
  br label %17

7:                                                ; preds = %1
  %8 = load ptr, ptr %3, align 8, !tbaa !67
  %9 = getelementptr inbounds nuw %struct.ZSTDv07_DCtx_s, ptr %8, i32 0, i32 19
  %10 = getelementptr inbounds nuw %struct.ZSTDv07_customMem, ptr %9, i32 0, i32 1
  %11 = load ptr, ptr %10, align 8, !tbaa !88
  %12 = load ptr, ptr %3, align 8, !tbaa !67
  %13 = getelementptr inbounds nuw %struct.ZSTDv07_DCtx_s, ptr %12, i32 0, i32 19
  %14 = getelementptr inbounds nuw %struct.ZSTDv07_customMem, ptr %13, i32 0, i32 2
  %15 = load ptr, ptr %14, align 8, !tbaa !89
  %16 = load ptr, ptr %3, align 8, !tbaa !67
  call void %11(ptr noundef %15, ptr noundef %16)
  store i64 0, ptr %2, align 8
  br label %17

17:                                               ; preds = %7, %6
  %18 = load i64, ptr %2, align 8
  ret i64 %18
}

; Function Attrs: nounwind uwtable
define i64 @ZBUFFv07_freeDCtx(ptr noundef %0) #0 {
  %2 = alloca i64, align 8
  %3 = alloca ptr, align 8
  store ptr %0, ptr %3, align 8, !tbaa !109
  %4 = load ptr, ptr %3, align 8, !tbaa !109
  %5 = icmp eq ptr %4, null
  br i1 %5, label %6, label %7

6:                                                ; preds = %1
  store i64 0, ptr %2, align 8
  br label %55

7:                                                ; preds = %1
  %8 = load ptr, ptr %3, align 8, !tbaa !109
  %9 = getelementptr inbounds nuw %struct.ZBUFFv07_DCtx_s, ptr %8, i32 0, i32 0
  %10 = load ptr, ptr %9, align 8, !tbaa !111
  %11 = call i64 @ZSTDv07_freeDCtx(ptr noundef %10)
  %12 = load ptr, ptr %3, align 8, !tbaa !109
  %13 = getelementptr inbounds nuw %struct.ZBUFFv07_DCtx_s, ptr %12, i32 0, i32 3
  %14 = load ptr, ptr %13, align 8, !tbaa !114
  %15 = icmp ne ptr %14, null
  br i1 %15, label %16, label %28

16:                                               ; preds = %7
  %17 = load ptr, ptr %3, align 8, !tbaa !109
  %18 = getelementptr inbounds nuw %struct.ZBUFFv07_DCtx_s, ptr %17, i32 0, i32 13
  %19 = getelementptr inbounds nuw %struct.ZSTDv07_customMem, ptr %18, i32 0, i32 1
  %20 = load ptr, ptr %19, align 8, !tbaa !115
  %21 = load ptr, ptr %3, align 8, !tbaa !109
  %22 = getelementptr inbounds nuw %struct.ZBUFFv07_DCtx_s, ptr %21, i32 0, i32 13
  %23 = getelementptr inbounds nuw %struct.ZSTDv07_customMem, ptr %22, i32 0, i32 2
  %24 = load ptr, ptr %23, align 8, !tbaa !116
  %25 = load ptr, ptr %3, align 8, !tbaa !109
  %26 = getelementptr inbounds nuw %struct.ZBUFFv07_DCtx_s, ptr %25, i32 0, i32 3
  %27 = load ptr, ptr %26, align 8, !tbaa !114
  call void %20(ptr noundef %24, ptr noundef %27)
  br label %28

28:                                               ; preds = %16, %7
  %29 = load ptr, ptr %3, align 8, !tbaa !109
  %30 = getelementptr inbounds nuw %struct.ZBUFFv07_DCtx_s, ptr %29, i32 0, i32 6
  %31 = load ptr, ptr %30, align 8, !tbaa !117
  %32 = icmp ne ptr %31, null
  br i1 %32, label %33, label %45

33:                                               ; preds = %28
  %34 = load ptr, ptr %3, align 8, !tbaa !109
  %35 = getelementptr inbounds nuw %struct.ZBUFFv07_DCtx_s, ptr %34, i32 0, i32 13
  %36 = getelementptr inbounds nuw %struct.ZSTDv07_customMem, ptr %35, i32 0, i32 1
  %37 = load ptr, ptr %36, align 8, !tbaa !115
  %38 = load ptr, ptr %3, align 8, !tbaa !109
  %39 = getelementptr inbounds nuw %struct.ZBUFFv07_DCtx_s, ptr %38, i32 0, i32 13
  %40 = getelementptr inbounds nuw %struct.ZSTDv07_customMem, ptr %39, i32 0, i32 2
  %41 = load ptr, ptr %40, align 8, !tbaa !116
  %42 = load ptr, ptr %3, align 8, !tbaa !109
  %43 = getelementptr inbounds nuw %struct.ZBUFFv07_DCtx_s, ptr %42, i32 0, i32 6
  %44 = load ptr, ptr %43, align 8, !tbaa !117
  call void %37(ptr noundef %41, ptr noundef %44)
  br label %45

45:                                               ; preds = %33, %28
  %46 = load ptr, ptr %3, align 8, !tbaa !109
  %47 = getelementptr inbounds nuw %struct.ZBUFFv07_DCtx_s, ptr %46, i32 0, i32 13
  %48 = getelementptr inbounds nuw %struct.ZSTDv07_customMem, ptr %47, i32 0, i32 1
  %49 = load ptr, ptr %48, align 8, !tbaa !115
  %50 = load ptr, ptr %3, align 8, !tbaa !109
  %51 = getelementptr inbounds nuw %struct.ZBUFFv07_DCtx_s, ptr %50, i32 0, i32 13
  %52 = getelementptr inbounds nuw %struct.ZSTDv07_customMem, ptr %51, i32 0, i32 2
  %53 = load ptr, ptr %52, align 8, !tbaa !116
  %54 = load ptr, ptr %3, align 8, !tbaa !109
  call void %49(ptr noundef %53, ptr noundef %54)
  store i64 0, ptr %2, align 8
  br label %55

55:                                               ; preds = %45, %6
  %56 = load i64, ptr %2, align 8
  ret i64 %56
}