; Function Attrs: nounwind uwtable
define noundef i64 @ZBUFFv07_freeDCtx(ptr noundef %0) local_unnamed_addr #1 {
  %2 = icmp eq ptr %0, null
  br i1 %2, label %31, label %3

3:                                                ; preds = %1
  %4 = load ptr, ptr %0, align 8, !tbaa !109
  %5 = icmp eq ptr %4, null
  br i1 %5, label %ZSTDv07_freeDCtx.exit, label %6

6:                                                ; preds = %3
  %7 = getelementptr inbounds nuw i8, ptr %4, i64 21736
  %8 = load ptr, ptr %7, align 8, !tbaa !75
  %9 = getelementptr inbounds nuw i8, ptr %4, i64 21744
  %10 = load ptr, ptr %9, align 8, !tbaa !76
  tail call void %8(ptr noundef %10, ptr noundef nonnull %4) #26
  br label %ZSTDv07_freeDCtx.exit

ZSTDv07_freeDCtx.exit:                            ; preds = %3, %6
  %11 = getelementptr inbounds nuw i8, ptr %0, i64 40
  %12 = load ptr, ptr %11, align 8, !tbaa !112
  %.not = icmp eq ptr %12, null
  br i1 %.not, label %18, label %13

13:                                               ; preds = %ZSTDv07_freeDCtx.exit
  %14 = getelementptr inbounds nuw i8, ptr %0, i64 144
  %15 = load ptr, ptr %14, align 8, !tbaa !113
  %16 = getelementptr inbounds nuw i8, ptr %0, i64 152
  %17 = load ptr, ptr %16, align 8, !tbaa !114
  tail call void %15(ptr noundef %17, ptr noundef nonnull %12) #26
  br label %18

18:                                               ; preds = %13, %ZSTDv07_freeDCtx.exit
  %19 = getelementptr inbounds nuw i8, ptr %0, i64 64
  %20 = load ptr, ptr %19, align 8, !tbaa !115
  %.not15 = icmp eq ptr %20, null
  br i1 %.not15, label %26, label %21

21:                                               ; preds = %18
  %22 = getelementptr inbounds nuw i8, ptr %0, i64 144
  %23 = load ptr, ptr %22, align 8, !tbaa !113
  %24 = getelementptr inbounds nuw i8, ptr %0, i64 152
  %25 = load ptr, ptr %24, align 8, !tbaa !114
  tail call void %23(ptr noundef %25, ptr noundef nonnull %20) #26
  br label %26

26:                                               ; preds = %21, %18
  %27 = getelementptr inbounds nuw i8, ptr %0, i64 144
  %28 = load ptr, ptr %27, align 8, !tbaa !113
  %29 = getelementptr inbounds nuw i8, ptr %0, i64 152
  %30 = load ptr, ptr %29, align 8, !tbaa !114
  tail call void %28(ptr noundef %30, ptr noundef nonnull %0) #26
  br label %31

31:                                               ; preds = %1, %26
  ret i64 0
}